target datalayout = "e-m:e-p270:32:32-p271:32:32-p272:64:64-i64:64-i128:128-f80:128-n8:16:32:64-S128"
target triple = "x86_64-pc-linux-gnu"

%struct.RTypedData = type { %struct.RBasic, ptr, i64, ptr }
%struct.RBasic = type { i64, i64 }

@eECError = internal global i64 0, align 8
@.str.57 = private unnamed_addr constant [23 x i8] c"EVP_PKEY_assign_EC_KEY\00", align 1
@.str.58 = private unnamed_addr constant [20 x i8] c"EC_KEY_generate_key\00", align 1

; Function Attrs: nounwind sspstrong uwtable
define internal i64 @ossl_ec_key_s_generate(i64 noundef %0, i64 noundef %1) #0 {
  %3 = alloca i64, align 8
  %4 = alloca i64, align 8
  %5 = alloca ptr, align 8
  %6 = alloca ptr, align 8
  %7 = alloca i64, align 8
  store i64 %0, ptr %3, align 8, !tbaa !6
  store i64 %1, ptr %4, align 8, !tbaa !6
  call void @llvm.lifetime.start.p0(i64 8, ptr %5) #19
  call void @llvm.lifetime.start.p0(i64 8, ptr %6) #19
  call void @llvm.lifetime.start.p0(i64 8, ptr %7) #19
  %8 = load i64, ptr %3, align 8, !tbaa !6
  %9 = call i64 @rb_obj_alloc(i64 noundef %8)
  store i64 %9, ptr %7, align 8, !tbaa !6
  %10 = load i64, ptr %4, align 8, !tbaa !6
  %11 = call ptr @ec_key_new_from_group(i64 noundef %10)
  store ptr %11, ptr %6, align 8, !tbaa !21
  %12 = call ptr @EVP_PKEY_new()
  store ptr %12, ptr %5, align 8, !tbaa !23
  %13 = load ptr, ptr %5, align 8, !tbaa !23
  %14 = icmp ne ptr %13, null
  br i1 %14, label %15, label %20

15:                                               ; preds = %2
  %16 = load ptr, ptr %5, align 8, !tbaa !23
  %17 = load ptr, ptr %6, align 8, !tbaa !21
  %18 = call i32 @EVP_PKEY_assign(ptr noundef %16, i32 noundef 408, ptr noundef %17)
  %19 = icmp ne i32 %18, 1
  br i1 %19, label %20, label %24

20:                                               ; preds = %15, %2
  %21 = load ptr, ptr %5, align 8, !tbaa !23
  call void @EVP_PKEY_free(ptr noundef %21)
  %22 = load ptr, ptr %6, align 8, !tbaa !21
  call void @EC_KEY_free(ptr noundef %22)
  %23 = load i64, ptr @eECError, align 8, !tbaa !6
  call void (i64, ptr, ...) @ossl_raise(i64 noundef %23, ptr noundef @.str.57) #20
  unreachable

24:                                               ; preds = %15
  %25 = load ptr, ptr %5, align 8, !tbaa !23
  %26 = load i64, ptr %7, align 8, !tbaa !6
  %27 = inttoptr i64 %26 to ptr
  %28 = getelementptr inbounds nuw %struct.RTypedData, ptr %27, i32 0, i32 3
  store ptr %25, ptr %28, align 8, !tbaa !25
  %29 = load ptr, ptr %6, align 8, !tbaa !21
  %30 = call i32 @EC_KEY_generate_key(ptr noundef %29)
  %31 = icmp ne i32 %30, 0
  br i1 %31, label %34, label %32

32:                                               ; preds = %24
  %33 = load i64, ptr @eECError, align 8, !tbaa !6
  call void (i64, ptr, ...) @ossl_raise(i64 noundef %33, ptr noundef @.str.58) #20
  unreachable

34:                                               ; preds = %24
  %35 = load i64, ptr %7, align 8, !tbaa !6
  call void @llvm.lifetime.end.p0(i64 8, ptr %7) #19
  call void @llvm.lifetime.end.p0(i64 8, ptr %6) #19
  call void @llvm.lifetime.end.p0(i64 8, ptr %5) #19
  ret i64 %35
}