; Function Attrs: nounwind sspstrong uwtable
define internal i64 @ossl_ec_key_s_generate(i64 noundef %0, i64 noundef %1) #0 {
  %3 = tail call i64 @rb_obj_alloc(i64 noundef %0) #7
  %4 = tail call fastcc ptr @ec_key_new_from_group(i64 noundef %1)
  %5 = tail call ptr @EVP_PKEY_new() #7
  %.not = icmp eq ptr %5, null
  br i1 %.not, label %8, label %6

6:                                                ; preds = %2
  %7 = tail call i32 @EVP_PKEY_assign(ptr noundef nonnull %5, i32 noundef 408, ptr noundef nonnull %4) #7
  %.not10 = icmp eq i32 %7, 1
  br i1 %.not10, label %10, label %8

8:                                                ; preds = %6, %2
  tail call void @EVP_PKEY_free(ptr noundef %5) #7
  tail call void @EC_KEY_free(ptr noundef nonnull %4) #7
  %9 = load i64, ptr @eECError, align 8, !tbaa !6
  tail call void (i64, ptr, ...) @ossl_raise(i64 noundef %9, ptr noundef nonnull @.str.57) #9
  unreachable

10:                                               ; preds = %6
  %11 = inttoptr i64 %3 to ptr
  %12 = getelementptr inbounds nuw i8, ptr %11, i64 32
  store ptr %5, ptr %12, align 8, !tbaa !19
  %13 = tail call i32 @EC_KEY_generate_key(ptr noundef nonnull %4) #7
  %.not11 = icmp eq i32 %13, 0
  br i1 %.not11, label %14, label %16

14:                                               ; preds = %10
  %15 = load i64, ptr @eECError, align 8, !tbaa !6
  tail call void (i64, ptr, ...) @ossl_raise(i64 noundef %15, ptr noundef nonnull @.str.58) #9
  unreachable

16:                                               ; preds = %10
  ret i64 %3
}